(dp1
(I200
I2
tp2
F49591.78515625
s(I100
I4
tp3
F25283.515625
s(I25
I1
tp4
F6829.15625
s(I5
I1
tp5
F1936.7890625
s(I25
I8
tp6
F6928.03515625
s(I100
I1
tp7
F25149.00390625
s(I5
I8
tp8
F2186.41015625
s(I10
I8
tp9
F3230.125
s(I25
I4
tp10
F6835.2109375
s(I100
I8
tp11
F25280.9609375
s(I50
I4
tp12
F13003.75390625
s(I200
I8
tp13
F49776.89453125
s(I50
I8
tp14
F13002.75
s(I100
I20
tp15
F25817.96484375
s(I50
I1
tp16
F12938.60546875
s(I200
I4
tp17
F49725.63671875
s(I5
I4
tp18
F1940.44140625
s(I10
I4
tp19
F3226.27734375
s(I100
I10
tp20
F25481.4609375
s(I10
I1
tp21
F3164.9765625
s(I100
I2
tp22
F25159.5625
s(I50
I20
tp23
F13021.51953125
s(I25
I10
tp24
F7079.57421875
s(I5
I10
tp25
F2187.796875
s(I10
I10
tp26
F3719.25390625
s(I200
I1
tp27
F49576.4765625
s(I50
I2
tp28
F12944.8515625
s(I200
I10
tp29
F49772.34375
s(I200
I20
tp30
F49849.37109375
s(I5
I20
tp31
F2188.87890625
s(I10
I20
tp32
F3720.6953125
s(I25
I20
tp33
F6967.1796875
s(I25
I2
tp34
F6836.95703125
s(I50
I10
tp35
F13433.71484375
s(I5
I2
tp36
F1938.95703125
s(I10
I2
tp37
F3225.12109375
s.